; Function Attrs: mustprogress uwtable
define void @_ZN6duckdb12NumericStats13CreateUnknownENS_11LogicalTypeE(ptr dead_on_unwind noalias writable sret(%"class.duckdb::BaseStatistics") align 8 %0, ptr noundef nonnull %1) local_unnamed_addr #3 align 2 personality ptr @__gxx_personality_v0 {
  %3 = alloca %"struct.duckdb::LogicalType", align 8
  %4 = alloca %"class.duckdb::Value", align 8
  %5 = alloca %"struct.duckdb::LogicalType", align 8
  %6 = alloca %"class.duckdb::Value", align 8
  %7 = alloca %"struct.duckdb::LogicalType", align 8
  call void @_ZN6duckdb11LogicalTypeC1EOS0_(ptr noundef nonnull align 8 dereferenceable(24) %3, ptr noundef nonnull align 8 dereferenceable(24) %1) #29
  invoke void @_ZN6duckdb14BaseStatisticsC1ENS_11LogicalTypeE(ptr noundef nonnull align 8 dereferenceable(88) %0, ptr noundef nonnull %3)
          to label %8 unwind label %19

8:                                                ; preds = %2
  call void @_ZN6duckdb11LogicalTypeD1Ev(ptr noundef nonnull align 8 dereferenceable(24) %3) #29
  %9 = getelementptr inbounds nuw i8, ptr %0, i64 24
  store i8 1, ptr %9, align 8, !tbaa !49
  %10 = getelementptr inbounds nuw i8, ptr %0, i64 25
  store i8 1, ptr %10, align 1, !tbaa !52
  call void @llvm.lifetime.start.p0(i64 64, ptr nonnull %4) #29
  invoke void @_ZN6duckdb11LogicalTypeC1ERKS0_(ptr noundef nonnull align 8 dereferenceable(24) %5, ptr noundef nonnull align 8 dereferenceable(24) %0)
          to label %11 unwind label %21

11:                                               ; preds = %8
  invoke void @_ZN6duckdb5ValueC1ENS_11LogicalTypeE(ptr noundef nonnull align 8 dereferenceable(64) %4, ptr noundef nonnull %5)
          to label %12 unwind label %23

12:                                               ; preds = %11
  %13 = getelementptr inbounds nuw i8, ptr %0, i64 40
  %14 = getelementptr inbounds nuw i8, ptr %0, i64 48
  invoke void @_ZN6duckdb23SetNumericValueInternalERKNS_5ValueERKNS_11LogicalTypeERNS_17NumericValueUnionERb(ptr noundef nonnull align 8 dereferenceable(64) %4, ptr noundef nonnull align 8 dereferenceable(88) %0, ptr noundef nonnull align 8 dereferenceable(16) %14, ptr noundef nonnull align 1 dereferenceable(1) %13)
          to label %_ZN6duckdb12NumericStats6SetMinERNS_14BaseStatisticsERKNS_5ValueE.exit unwind label %25

_ZN6duckdb12NumericStats6SetMinERNS_14BaseStatisticsERKNS_5ValueE.exit: ; preds = %12
  call void @_ZN6duckdb5ValueD1Ev(ptr noundef nonnull align 8 dereferenceable(64) %4) #29
  call void @_ZN6duckdb11LogicalTypeD1Ev(ptr noundef nonnull align 8 dereferenceable(24) %5) #29
  call void @llvm.lifetime.end.p0(i64 64, ptr nonnull %4) #29
  call void @llvm.lifetime.start.p0(i64 64, ptr nonnull %6) #29
  invoke void @_ZN6duckdb11LogicalTypeC1ERKS0_(ptr noundef nonnull align 8 dereferenceable(24) %7, ptr noundef nonnull align 8 dereferenceable(24) %0)
          to label %15 unwind label %29

15:                                               ; preds = %_ZN6duckdb12NumericStats6SetMinERNS_14BaseStatisticsERKNS_5ValueE.exit
  invoke void @_ZN6duckdb5ValueC1ENS_11LogicalTypeE(ptr noundef nonnull align 8 dereferenceable(64) %6, ptr noundef nonnull %7)
          to label %16 unwind label %31

16:                                               ; preds = %15
  %17 = getelementptr inbounds nuw i8, ptr %0, i64 64
  %18 = getelementptr inbounds nuw i8, ptr %0, i64 41
  invoke void @_ZN6duckdb23SetNumericValueInternalERKNS_5ValueERKNS_11LogicalTypeERNS_17NumericValueUnionERb(ptr noundef nonnull align 8 dereferenceable(64) %6, ptr noundef nonnull align 8 dereferenceable(88) %0, ptr noundef nonnull align 8 dereferenceable(16) %17, ptr noundef nonnull align 1 dereferenceable(1) %18)
          to label %_ZN6duckdb12NumericStats6SetMaxERNS_14BaseStatisticsERKNS_5ValueE.exit unwind label %33

_ZN6duckdb12NumericStats6SetMaxERNS_14BaseStatisticsERKNS_5ValueE.exit: ; preds = %16
  call void @_ZN6duckdb5ValueD1Ev(ptr noundef nonnull align 8 dereferenceable(64) %6) #29
  call void @_ZN6duckdb11LogicalTypeD1Ev(ptr noundef nonnull align 8 dereferenceable(24) %7) #29
  call void @llvm.lifetime.end.p0(i64 64, ptr nonnull %6) #29
  ret void

19:                                               ; preds = %2
  %20 = landingpad { ptr, i32 }
          cleanup
  call void @_ZN6duckdb11LogicalTypeD1Ev(ptr noundef nonnull align 8 dereferenceable(24) %3) #29
  br label %38

21:                                               ; preds = %8
  %22 = landingpad { ptr, i32 }
          cleanup
  br label %28

23:                                               ; preds = %11
  %24 = landingpad { ptr, i32 }
          cleanup
  br label %27

25:                                               ; preds = %12
  %26 = landingpad { ptr, i32 }
          cleanup
  call void @_ZN6duckdb5ValueD1Ev(ptr noundef nonnull align 8 dereferenceable(64) %4) #29
  br label %27

27:                                               ; preds = %25, %23
  %.pn = phi { ptr, i32 } [ %26, %25 ], [ %24, %23 ]
  call void @_ZN6duckdb11LogicalTypeD1Ev(ptr noundef nonnull align 8 dereferenceable(24) %5) #29
  br label %28

28:                                               ; preds = %27, %21
  %.pn.pn = phi { ptr, i32 } [ %.pn, %27 ], [ %22, %21 ]
  call void @llvm.lifetime.end.p0(i64 64, ptr nonnull %4) #29
  br label %37

29:                                               ; preds = %_ZN6duckdb12NumericStats6SetMinERNS_14BaseStatisticsERKNS_5ValueE.exit
  %30 = landingpad { ptr, i32 }
          cleanup
  br label %36

31:                                               ; preds = %15
  %32 = landingpad { ptr, i32 }
          cleanup
  br label %35

33:                                               ; preds = %16
  %34 = landingpad { ptr, i32 }
          cleanup
  call void @_ZN6duckdb5ValueD1Ev(ptr noundef nonnull align 8 dereferenceable(64) %6) #29
  br label %35

35:                                               ; preds = %33, %31
  %.pn10 = phi { ptr, i32 } [ %34, %33 ], [ %32, %31 ]
  call void @_ZN6duckdb11LogicalTypeD1Ev(ptr noundef nonnull align 8 dereferenceable(24) %7) #29
  br label %36

36:                                               ; preds = %35, %29
  %.pn10.pn = phi { ptr, i32 } [ %.pn10, %35 ], [ %30, %29 ]
  call void @llvm.lifetime.end.p0(i64 64, ptr nonnull %6) #29
  br label %37

37:                                               ; preds = %36, %28
  %.pn10.pn.pn = phi { ptr, i32 } [ %.pn10.pn, %36 ], [ %.pn.pn, %28 ]
  call void @_ZN6duckdb14BaseStatisticsD1Ev(ptr noundef nonnull align 8 dereferenceable(88) %0) #29
  br label %38

38:                                               ; preds = %37, %19
  %.pn10.pn.pn.pn = phi { ptr, i32 } [ %.pn10.pn.pn, %37 ], [ %20, %19 ]
  resume { ptr, i32 } %.pn10.pn.pn.pn
}